target datalayout = "e-m:e-p270:32:32-p271:32:32-p272:64:64-i64:64-i128:128-f80:128-n8:16:32:64-S128"
target triple = "x86_64-pc-linux-gnu"

%struct._psqlSettings = type { ptr, i32, ptr, i8, ptr, ptr, %struct.printQueryOpt, ptr, ptr, ptr, i8, i8, i32, i32, ptr, ptr, i8, [4 x ptr], i8, i32, ptr, i8, i32, ptr, ptr, i64, i64, i8, ptr, ptr, ptr, i8, i8, i8, i8, i8, i8, i8, i32, i32, i32, i32, i32, i32, i32, i32, ptr, ptr, ptr, i32, i8, i32 }
%struct.printQueryOpt = type { %struct.printTableOpt, ptr, ptr, ptr, i8, ptr, i32 }
%struct.printTableOpt = type { i32, i16, i32, i32, i16, i16, i32, i8, i8, i8, i8, i64, ptr, %struct.separator, %struct.separator, [2 x i8], i8, ptr, i32, i32, i32, i32, i32, i32 }
%struct.separator = type { ptr, i8 }

@pset = dso_local global %struct._psqlSettings zeroinitializer, align 8
@.str.108 = private unnamed_addr constant [10 x i8] c"VERBOSITY\00", align 1
@.str.132 = private unnamed_addr constant [8 x i8] c"default\00", align 1
@.str.133 = private unnamed_addr constant [8 x i8] c"verbose\00", align 1
@.str.134 = private unnamed_addr constant [6 x i8] c"terse\00", align 1
@.str.135 = private unnamed_addr constant [9 x i8] c"sqlstate\00", align 1
@.str.136 = private unnamed_addr constant [34 x i8] c"default, verbose, terse, sqlstate\00", align 1

; Function Attrs: nounwind uwtable
define internal zeroext i1 @verbosity_hook(ptr noundef %0) #0 {
  %2 = alloca i1, align 1
  %3 = alloca ptr, align 8
  store ptr %0, ptr %3, align 8
  %4 = load ptr, ptr %3, align 8
  %5 = call i32 @pg_strcasecmp(ptr noundef %4, ptr noundef @.str.132)
  %6 = icmp eq i32 %5, 0
  br i1 %6, label %7, label %8

7:                                                ; preds = %1
  store i32 1, ptr getelementptr inbounds nuw (%struct._psqlSettings, ptr @pset, i32 0, i32 49), align 8
  br label %28

8:                                                ; preds = %1
  %9 = load ptr, ptr %3, align 8
  %10 = call i32 @pg_strcasecmp(ptr noundef %9, ptr noundef @.str.133)
  %11 = icmp eq i32 %10, 0
  br i1 %11, label %12, label %13

12:                                               ; preds = %8
  store i32 2, ptr getelementptr inbounds nuw (%struct._psqlSettings, ptr @pset, i32 0, i32 49), align 8
  br label %27

13:                                               ; preds = %8
  %14 = load ptr, ptr %3, align 8
  %15 = call i32 @pg_strcasecmp(ptr noundef %14, ptr noundef @.str.134)
  %16 = icmp eq i32 %15, 0
  br i1 %16, label %17, label %18

17:                                               ; preds = %13
  store i32 0, ptr getelementptr inbounds nuw (%struct._psqlSettings, ptr @pset, i32 0, i32 49), align 8
  br label %26

18:                                               ; preds = %13
  %19 = load ptr, ptr %3, align 8
  %20 = call i32 @pg_strcasecmp(ptr noundef %19, ptr noundef @.str.135)
  %21 = icmp eq i32 %20, 0
  br i1 %21, label %22, label %23

22:                                               ; preds = %18
  store i32 3, ptr getelementptr inbounds nuw (%struct._psqlSettings, ptr @pset, i32 0, i32 49), align 8
  br label %25

23:                                               ; preds = %18
  %24 = load ptr, ptr %3, align 8
  call void @PsqlVarEnumError(ptr noundef @.str.108, ptr noundef %24, ptr noundef @.str.136)
  store i1 false, ptr %2, align 1
  br label %36

25:                                               ; preds = %22
  br label %26

26:                                               ; preds = %25, %17
  br label %27

27:                                               ; preds = %26, %12
  br label %28

28:                                               ; preds = %27, %7
  %29 = load ptr, ptr @pset, align 8
  %30 = icmp ne ptr %29, null
  br i1 %30, label %31, label %35

31:                                               ; preds = %28
  %32 = load ptr, ptr @pset, align 8
  %33 = load i32, ptr getelementptr inbounds nuw (%struct._psqlSettings, ptr @pset, i32 0, i32 49), align 8
  %34 = call i32 @PQsetErrorVerbosity(ptr noundef %32, i32 noundef %33)
  br label %35

35:                                               ; preds = %31, %28
  store i1 true, ptr %2, align 1
  br label %36

36:                                               ; preds = %35, %23
  %37 = load i1, ptr %2, align 1
  ret i1 %37
}