; Function Attrs: nounwind uwtable
define internal noundef zeroext i1 @verbosity_hook(ptr noundef %0) #0 {
  %2 = tail call i32 @pg_strcasecmp(ptr noundef %0, ptr noundef nonnull @.str.132) #15
  %3 = icmp eq i32 %2, 0
  br i1 %3, label %14, label %4

4:                                                ; preds = %1
  %5 = tail call i32 @pg_strcasecmp(ptr noundef %0, ptr noundef nonnull @.str.133) #15
  %6 = icmp eq i32 %5, 0
  br i1 %6, label %14, label %7

7:                                                ; preds = %4
  %8 = tail call i32 @pg_strcasecmp(ptr noundef %0, ptr noundef nonnull @.str.134) #15
  %9 = icmp eq i32 %8, 0
  br i1 %9, label %14, label %10

10:                                               ; preds = %7
  %11 = tail call i32 @pg_strcasecmp(ptr noundef %0, ptr noundef nonnull @.str.135) #15
  %12 = icmp eq i32 %11, 0
  br i1 %12, label %14, label %13

13:                                               ; preds = %10
  tail call void @PsqlVarEnumError(ptr noundef nonnull @.str.108, ptr noundef %0, ptr noundef nonnull @.str.136) #15
  br label %18

14:                                               ; preds = %10, %7, %4, %1
  %.sink = phi i32 [ 1, %1 ], [ 2, %4 ], [ 0, %7 ], [ 3, %10 ]
  store i32 %.sink, ptr getelementptr inbounds nuw (i8, ptr @pset, i64 464), align 8
  %15 = load ptr, ptr @pset, align 8
  %.not = icmp eq ptr %15, null
  br i1 %.not, label %18, label %16

16:                                               ; preds = %14
  %17 = tail call i32 @PQsetErrorVerbosity(ptr noundef nonnull %15, i32 noundef %.sink) #15
  br label %18

18:                                               ; preds = %14, %16, %13
  %.0 = phi i1 [ false, %13 ], [ true, %16 ], [ true, %14 ]
  ret i1 %.0
}